; Function Attrs: nounwind sspstrong uwtable
define dso_local i64 @vhost_user_get_acked_features(ptr noundef readonly captures(none) %nc) local_unnamed_addr #0 {
entry:
  %0 = load ptr, ptr %nc, align 8
  %1 = load i32, ptr %0, align 8
  %cmp = icmp eq i32 %1, 12
  br i1 %cmp, label %if.end, label %if.else

if.else:                                          ; preds = %entry
  tail call void @__assert_fail(ptr noundef nonnull @.str, ptr noundef nonnull @.str.1, i32 noundef 44, ptr noundef nonnull @__PRETTY_FUNCTION__.vhost_user_get_acked_features) #9
  unreachable

if.end:                                           ; preds = %entry
  %acked_features = getelementptr inbounds nuw i8, ptr %nc, i64 456
  %2 = load i64, ptr %acked_features, align 8
  ret i64 %2
}